target datalayout = "e-m:e-p270:32:32-p271:32:32-p272:64:64-i64:64-i128:128-f80:128-n8:16:32:64-S128"
target triple = "x86_64-pc-linux-gnu"

; Function Attrs: nounwind uwtable
define ptr @lv_fs_get_last(ptr noundef %0) #0 {
  %2 = alloca ptr, align 8
  %3 = alloca ptr, align 8
  %4 = alloca i64, align 8
  %5 = alloca i32, align 4
  %6 = alloca i64, align 8
  store ptr %0, ptr %3, align 8, !tbaa !6
  call void @llvm.lifetime.start.p0(i64 8, ptr %4) #4
  %7 = load ptr, ptr %3, align 8, !tbaa !6
  %8 = call i64 @lv_strlen(ptr noundef %7)
  store i64 %8, ptr %4, align 8, !tbaa !45
  %9 = load i64, ptr %4, align 8, !tbaa !45
  %10 = icmp eq i64 %9, 0
  br i1 %10, label %11, label %13

11:                                               ; preds = %1
  %12 = load ptr, ptr %3, align 8, !tbaa !6
  store ptr %12, ptr %2, align 8
  store i32 1, ptr %5, align 4
  br label %76

13:                                               ; preds = %1
  %14 = load i64, ptr %4, align 8, !tbaa !45
  %15 = add i64 %14, -1
  store i64 %15, ptr %4, align 8, !tbaa !45
  br label %16

16:                                               ; preds = %40, %13
  %17 = load ptr, ptr %3, align 8, !tbaa !6
  %18 = load i64, ptr %4, align 8, !tbaa !45
  %19 = getelementptr inbounds nuw i8, ptr %17, i64 %18
  %20 = load i8, ptr %19, align 1, !tbaa !3
  %21 = sext i8 %20 to i32
  %22 = icmp eq i32 %21, 47
  br i1 %22, label %30, label %23

23:                                               ; preds = %16
  %24 = load ptr, ptr %3, align 8, !tbaa !6
  %25 = load i64, ptr %4, align 8, !tbaa !45
  %26 = getelementptr inbounds nuw i8, ptr %24, i64 %25
  %27 = load i8, ptr %26, align 1, !tbaa !3
  %28 = sext i8 %27 to i32
  %29 = icmp eq i32 %28, 92
  br label %30

30:                                               ; preds = %23, %16
  %31 = phi i1 [ true, %16 ], [ %29, %23 ]
  br i1 %31, label %32, label %41

32:                                               ; preds = %30
  %33 = load i64, ptr %4, align 8, !tbaa !45
  %34 = icmp ugt i64 %33, 0
  br i1 %34, label %35, label %38

35:                                               ; preds = %32
  %36 = load i64, ptr %4, align 8, !tbaa !45
  %37 = add i64 %36, -1
  store i64 %37, ptr %4, align 8, !tbaa !45
  br label %40

38:                                               ; preds = %32
  %39 = load ptr, ptr %3, align 8, !tbaa !6
  store ptr %39, ptr %2, align 8
  store i32 1, ptr %5, align 4
  br label %76

40:                                               ; preds = %35
  br label %16, !llvm.loop !51

41:                                               ; preds = %30
  call void @llvm.lifetime.start.p0(i64 8, ptr %6) #4
  %42 = load i64, ptr %4, align 8, !tbaa !45
  store i64 %42, ptr %6, align 8, !tbaa !45
  br label %43

43:                                               ; preds = %62, %41
  %44 = load i64, ptr %6, align 8, !tbaa !45
  %45 = icmp ugt i64 %44, 0
  br i1 %45, label %46, label %65

46:                                               ; preds = %43
  %47 = load ptr, ptr %3, align 8, !tbaa !6
  %48 = load i64, ptr %6, align 8, !tbaa !45
  %49 = getelementptr inbounds nuw i8, ptr %47, i64 %48
  %50 = load i8, ptr %49, align 1, !tbaa !3
  %51 = sext i8 %50 to i32
  %52 = icmp eq i32 %51, 47
  br i1 %52, label %60, label %53

53:                                               ; preds = %46
  %54 = load ptr, ptr %3, align 8, !tbaa !6
  %55 = load i64, ptr %6, align 8, !tbaa !45
  %56 = getelementptr inbounds nuw i8, ptr %54, i64 %55
  %57 = load i8, ptr %56, align 1, !tbaa !3
  %58 = sext i8 %57 to i32
  %59 = icmp eq i32 %58, 92
  br i1 %59, label %60, label %61

60:                                               ; preds = %53, %46
  br label %65

61:                                               ; preds = %53
  br label %62

62:                                               ; preds = %61
  %63 = load i64, ptr %6, align 8, !tbaa !45
  %64 = add i64 %63, -1
  store i64 %64, ptr %6, align 8, !tbaa !45
  br label %43, !llvm.loop !52

65:                                               ; preds = %60, %43
  %66 = load i64, ptr %6, align 8, !tbaa !45
  %67 = icmp eq i64 %66, 0
  br i1 %67, label %68, label %70

68:                                               ; preds = %65
  %69 = load ptr, ptr %3, align 8, !tbaa !6
  store ptr %69, ptr %2, align 8
  store i32 1, ptr %5, align 4
  br label %75

70:                                               ; preds = %65
  %71 = load ptr, ptr %3, align 8, !tbaa !6
  %72 = load i64, ptr %6, align 8, !tbaa !45
  %73 = add i64 %72, 1
  %74 = getelementptr inbounds nuw i8, ptr %71, i64 %73
  store ptr %74, ptr %2, align 8
  store i32 1, ptr %5, align 4
  br label %75

75:                                               ; preds = %70, %68
  call void @llvm.lifetime.end.p0(i64 8, ptr %6) #4
  br label %76

76:                                               ; preds = %75, %38, %11
  call void @llvm.lifetime.end.p0(i64 8, ptr %4) #4
  %77 = load ptr, ptr %2, align 8
  ret ptr %77
}