; Function Attrs: nounwind uwtable
define ptr @lv_fs_get_last(ptr noundef %0) local_unnamed_addr #0 {
  %2 = tail call i64 @lv_strlen(ptr noundef %0) #6
  %3 = icmp eq i64 %2, 0
  br i1 %3, label %.loopexit, label %.preheader28

.preheader28:                                     ; preds = %1, %.critedge
  %.022.in = phi i64 [ %.022, %.critedge ], [ %2, %1 ]
  %.022 = add i64 %.022.in, -1
  %4 = getelementptr inbounds nuw i8, ptr %0, i64 %.022
  %5 = load i8, ptr %4, align 1, !tbaa !13
  switch i8 %5, label %.preheader [
    i8 47, label %.critedge
    i8 92, label %.critedge
  ]

.preheader:                                       ; preds = %.preheader28
  %cond31 = icmp eq i64 %.022, 0
  br i1 %cond31, label %.loopexit, label %.lr.ph

.critedge:                                        ; preds = %.preheader28, %.preheader28
  %.not27 = icmp eq i64 %.022, 0
  br i1 %.not27, label %.loopexit, label %.preheader28, !llvm.loop !44

.lr.ph:                                           ; preds = %.preheader, %8
  %.032 = phi i64 [ %9, %8 ], [ %.022, %.preheader ]
  %6 = getelementptr inbounds nuw i8, ptr %0, i64 %.032
  %7 = load i8, ptr %6, align 1, !tbaa !13
  switch i8 %7, label %8 [
    i8 47, label %10
    i8 92, label %10
  ]

8:                                                ; preds = %.lr.ph
  %9 = add i64 %.032, -1
  %cond = icmp eq i64 %9, 0
  br i1 %cond, label %.loopexit, label %.lr.ph, !llvm.loop !45

10:                                               ; preds = %.lr.ph, %.lr.ph
  %11 = getelementptr inbounds nuw i8, ptr %0, i64 %.032
  %12 = getelementptr i8, ptr %11, i64 1
  br label %.loopexit

.loopexit:                                        ; preds = %.critedge, %8, %.preheader, %10, %1
  %.023 = phi ptr [ %0, %1 ], [ %12, %10 ], [ %0, %.preheader ], [ %0, %8 ], [ %0, %.critedge ]
  ret ptr %.023
}